; ModuleID = 'source-C-CXX/29/3175.c'
source_filename = "source-C-CXX/29/3175.c"
target datalayout = "e-m:e-p270:32:32-p271:32:32-p272:64:64-i64:64-f80:128-n8:16:32:64-S128"
target triple = "x86_64-pc-linux-gnu"

@.str = private unnamed_addr constant [3 x i8] c"%d\00", align 1

; Function Attrs: nofree nounwind sspstrong uwtable
define dso_local i32 @main() local_unnamed_addr #0 {
  %1 = alloca i32, align 4
  %2 = bitcast i32* %1 to i8*
  call void @llvm.lifetime.start.p0i8(i64 4, i8* nonnull %2) #3
  %3 = call i32 (i8*, ...) @__isoc99_scanf(i8* getelementptr inbounds ([3 x i8], [3 x i8]* @.str, i64 0, i64 0), i32* nonnull %1)
  %4 = load i32, i32* %1, align 4, !tbaa !5
  %5 = icmp sgt i32 %4, 0
  br i1 %5, label %6, label %27

6:                                                ; preds = %0, %22
  %7 = phi i32 [ %25, %22 ], [ %4, %0 ]
  %8 = phi i32 [ %24, %22 ], [ 0, %0 ]
  br label %9

9:                                                ; preds = %6, %19
  %10 = phi i32 [ %7, %6 ], [ %20, %19 ]
  %11 = urem i32 %10, 7
  %12 = urem i32 %10, 10
  %13 = icmp eq i32 %11, 0
  %14 = add nsw i32 %10, -70
  %15 = icmp ult i32 %14, 10
  %16 = or i1 %13, %15
  %17 = icmp eq i32 %12, 7
  %18 = select i1 %16, i1 true, i1 %17
  br i1 %18, label %19, label %22

19:                                               ; preds = %9
  %20 = add nsw i32 %10, -1
  %21 = icmp sgt i32 %10, 1
  br i1 %21, label %9, label %27, !llvm.loop !9

22:                                               ; preds = %9
  %23 = mul nsw i32 %10, %10
  %24 = add nuw nsw i32 %23, %8
  %25 = add nsw i32 %10, -1
  %26 = icmp sgt i32 %10, 1
  br i1 %26, label %6, label %27, !llvm.loop !9

27:                                               ; preds = %22, %19, %0
  %28 = phi i32 [ 0, %0 ], [ %8, %19 ], [ %24, %22 ]
  %29 = call i32 (i8*, ...) @printf(i8* nonnull dereferenceable(1) getelementptr inbounds ([3 x i8], [3 x i8]* @.str, i64 0, i64 0), i32 %28)
  call void @llvm.lifetime.end.p0i8(i64 4, i8* nonnull %2) #3
  ret i32 0
}

; Function Attrs: argmemonly mustprogress nofree nosync nounwind willreturn
declare void @llvm.lifetime.start.p0i8(i64 immarg, i8* nocapture) #1

; Function Attrs: nofree nounwind
declare noundef i32 @__isoc99_scanf(i8* nocapture noundef readonly, ...) local_unnamed_addr #2

; Function Attrs: nofree nounwind
declare noundef i32 @printf(i8* nocapture noundef readonly, ...) local_unnamed_addr #2

; Function Attrs: argmemonly mustprogress nofree nosync nounwind willreturn
declare void @llvm.lifetime.end.p0i8(i64 immarg, i8* nocapture) #1


!llvm.module.flags = !{!0, !1, !2, !3}
!llvm.ident = !{!4}

!0 = !{i32 1, !"wchar_size", i32 4}
!1 = !{i32 7, !"PIC Level", i32 2}
!2 = !{i32 7, !"PIE Level", i32 2}
!3 = !{i32 7, !"uwtable", i32 1}
!4 = !{!"clang version 13.0.0"}
!5 = !{!6, !6, i64 0}
!6 = !{!"int", !7, i64 0}
!7 = !{!"omnipotent char", !8, i64 0}
!8 = !{!"Simple C/C++ TBAA"}
!9 = distinct !{!9, !10}
!10 = !{!"llvm.loop.mustprogress"}
